target datalayout = "e-m:e-p270:32:32-p271:32:32-p272:64:64-i64:64-i128:128-f80:128-n8:16:32:64-S128"
target triple = "x86_64-pc-linux-gnu"

%union.pthread_mutex_t = type { %struct.__pthread_mutex_s }
%struct.__pthread_mutex_s = type { i32, i32, i32, i32, i32, i16, i16, %struct.__pthread_internal_list }
%struct.__pthread_internal_list = type { ptr, ptr }
%struct.slurm_jobacct_gather_ops = type { ptr, ptr, ptr }

@.str.1 = private unnamed_addr constant [29 x i8] c"%s: pthread_mutex_lock(): %m\00", align 1
@ops = internal global %struct.slurm_jobacct_gather_ops zeroinitializer, align 8
@.str.3 = private unnamed_addr constant [31 x i8] c"%s: pthread_mutex_unlock(): %m\00", align 1
@task_list = internal global ptr null, align 8
@task_list_lock = internal global %union.pthread_mutex_t zeroinitializer, align 8
@cont_id = internal global i64 -2, align 8
@__func__._poll_data = private unnamed_addr constant [11 x i8] c"_poll_data\00", align 1

; Function Attrs: nounwind uwtable
define internal void @_poll_data(i1 noundef zeroext %0) #0 {
  %2 = alloca i8, align 1
  %3 = alloca i32, align 4
  %4 = alloca i32, align 4
  %5 = zext i1 %0 to i8
  store i8 %5, ptr %2, align 1
  br label %6

6:                                                ; preds = %1
  call void @llvm.lifetime.start.p0(i64 4, ptr %3) #8
  %7 = call i32 @pthread_mutex_lock(ptr noundef @task_list_lock) #8
  store i32 %7, ptr %3, align 4
  %8 = load i32, ptr %3, align 4
  %9 = icmp ne i32 %8, 0
  br i1 %9, label %10, label %13

10:                                               ; preds = %6
  %11 = load i32, ptr %3, align 4
  %12 = call ptr @__errno_location() #9
  store i32 %11, ptr %12, align 4
  call void (ptr, ...) @fatal_abort(ptr noundef @.str.1, ptr noundef @__func__._poll_data) #10
  unreachable

13:                                               ; preds = %6
  call void @llvm.lifetime.end.p0(i64 4, ptr %3) #8
  br label %14

14:                                               ; preds = %13
  %15 = load ptr, ptr @task_list, align 8
  %16 = icmp ne ptr %15, null
  br i1 %16, label %17, label %23

17:                                               ; preds = %14
  %18 = load ptr, ptr @ops, align 8
  %19 = load ptr, ptr @task_list, align 8
  %20 = load i64, ptr @cont_id, align 8
  %21 = load i8, ptr %2, align 1, !range !8, !noundef !9
  %22 = trunc i8 %21 to i1
  call void %18(ptr noundef %19, i64 noundef %20, i1 noundef zeroext %22)
  br label %23

23:                                               ; preds = %17, %14
  br label %24

24:                                               ; preds = %23
  call void @llvm.lifetime.start.p0(i64 4, ptr %4) #8
  %25 = call i32 @pthread_mutex_unlock(ptr noundef @task_list_lock) #8
  store i32 %25, ptr %4, align 4
  %26 = load i32, ptr %4, align 4
  %27 = icmp ne i32 %26, 0
  br i1 %27, label %28, label %31

28:                                               ; preds = %24
  %29 = load i32, ptr %4, align 4
  %30 = call ptr @__errno_location() #9
  store i32 %29, ptr %30, align 4
  call void (ptr, ...) @fatal_abort(ptr noundef @.str.3, ptr noundef @__func__._poll_data) #10
  unreachable

31:                                               ; preds = %24
  call void @llvm.lifetime.end.p0(i64 4, ptr %4) #8
  br label %32

32:                                               ; preds = %31
  ret void
}