; Function Attrs: nounwind uwtable
define internal fastcc void @_poll_data(i1 noundef zeroext %0) unnamed_addr #0 {
  %2 = tail call i32 @pthread_mutex_lock(ptr noundef nonnull @task_list_lock) #10
  %.not = icmp eq i32 %2, 0
  br i1 %.not, label %5, label %3

3:                                                ; preds = %1
  %4 = tail call ptr @__errno_location() #11
  store i32 %2, ptr %4, align 4
  tail call void (ptr, ...) @fatal_abort(ptr noundef nonnull @.str.1, ptr noundef nonnull @__func__._poll_data) #12
  unreachable

5:                                                ; preds = %1
  %6 = load ptr, ptr @task_list, align 8
  %.not7 = icmp eq ptr %6, null
  br i1 %.not7, label %10, label %7

7:                                                ; preds = %5
  %8 = load ptr, ptr @ops, align 8
  %9 = load i64, ptr @cont_id, align 8
  tail call void %8(ptr noundef nonnull %6, i64 noundef %9, i1 noundef zeroext %0) #10
  br label %10

10:                                               ; preds = %5, %7
  %11 = tail call i32 @pthread_mutex_unlock(ptr noundef nonnull @task_list_lock) #10
  %.not8 = icmp eq i32 %11, 0
  br i1 %.not8, label %14, label %12

12:                                               ; preds = %10
  %13 = tail call ptr @__errno_location() #11
  store i32 %11, ptr %13, align 4
  tail call void (ptr, ...) @fatal_abort(ptr noundef nonnull @.str.3, ptr noundef nonnull @__func__._poll_data) #12
  unreachable

14:                                               ; preds = %10
  ret void
}